; Function Attrs: nounwind uwtable
define ptr @l___private_Std_Sat_AIG_LawfulOperator_0__Std_Sat_AIG_toGraphviz_go_match__1_splitter___rarg(ptr noundef %0, ptr noundef %1, ptr noundef %2, ptr noundef %3) #0 {
  %5 = ptrtoint ptr %0 to i64
  %6 = and i64 %5, 1
  %.not.i48 = icmp eq i64 %6, 0
  br i1 %.not.i48, label %10, label %7

7:                                                ; preds = %4
  %8 = lshr i64 %5, 1
  %9 = trunc i64 %8 to i32
  br label %lean_obj_tag.exit

10:                                               ; preds = %4
  %11 = getelementptr i8, ptr %0, i64 4
  %.val.i = load i32, ptr %11, align 4
  %12 = lshr i32 %.val.i, 24
  br label %lean_obj_tag.exit

lean_obj_tag.exit:                                ; preds = %7, %10
  %.0.i = phi i32 [ %9, %7 ], [ %12, %10 ]
  switch i32 %.0.i, label %70 [
    i32 0, label %13
    i32 1, label %33
  ]

13:                                               ; preds = %lean_obj_tag.exit
  %14 = ptrtoint ptr %3 to i64
  %15 = and i64 %14, 1
  %.not60 = icmp eq i64 %15, 0
  br i1 %.not60, label %16, label %lean_dec.exit

16:                                               ; preds = %13
  %17 = load i32, ptr %3, align 4, !tbaa !4
  %18 = icmp sgt i32 %17, 1
  br i1 %18, label %19, label %21, !prof !9

19:                                               ; preds = %16
  %20 = add nsw i32 %17, -1
  store i32 %20, ptr %3, align 4, !tbaa !4
  br label %lean_dec.exit

21:                                               ; preds = %16
  %.not.i46 = icmp eq i32 %17, 0
  br i1 %.not.i46, label %lean_dec.exit, label %22

22:                                               ; preds = %21
  tail call void @lean_dec_ref_cold(ptr noundef nonnull %3) #3
  br label %lean_dec.exit

lean_dec.exit:                                    ; preds = %22, %21, %19, %13
  %23 = ptrtoint ptr %2 to i64
  %24 = and i64 %23, 1
  %.not61 = icmp eq i64 %24, 0
  br i1 %.not61, label %25, label %lean_dec.exit25

25:                                               ; preds = %lean_dec.exit
  %26 = load i32, ptr %2, align 4, !tbaa !4
  %27 = icmp sgt i32 %26, 1
  br i1 %27, label %28, label %30, !prof !9

28:                                               ; preds = %25
  %29 = add nsw i32 %26, -1
  store i32 %29, ptr %2, align 4, !tbaa !4
  br label %lean_dec.exit25

30:                                               ; preds = %25
  %.not.i44 = icmp eq i32 %26, 0
  br i1 %.not.i44, label %lean_dec.exit25, label %31

31:                                               ; preds = %30
  tail call void @lean_dec_ref_cold(ptr noundef nonnull %2) #3
  br label %lean_dec.exit25

lean_dec.exit25:                                  ; preds = %31, %30, %28, %lean_dec.exit
  %32 = tail call ptr @lean_apply_1(ptr noundef %1, ptr noundef nonnull inttoptr (i64 1 to ptr)) #3
  br label %117

33:                                               ; preds = %lean_obj_tag.exit
  %34 = ptrtoint ptr %3 to i64
  %35 = and i64 %34, 1
  %.not = icmp eq i64 %35, 0
  br i1 %.not, label %36, label %lean_dec.exit26

36:                                               ; preds = %33
  %37 = load i32, ptr %3, align 4, !tbaa !4
  %38 = icmp sgt i32 %37, 1
  br i1 %38, label %39, label %41, !prof !9

39:                                               ; preds = %36
  %40 = add nsw i32 %37, -1
  store i32 %40, ptr %3, align 4, !tbaa !4
  br label %lean_dec.exit26

41:                                               ; preds = %36
  %.not.i42 = icmp eq i32 %37, 0
  br i1 %.not.i42, label %lean_dec.exit26, label %42

42:                                               ; preds = %41
  tail call void @lean_dec_ref_cold(ptr noundef nonnull %3) #3
  br label %lean_dec.exit26

lean_dec.exit26:                                  ; preds = %42, %41, %39, %33
  %43 = ptrtoint ptr %1 to i64
  %44 = and i64 %43, 1
  %.not57 = icmp eq i64 %44, 0
  br i1 %.not57, label %45, label %lean_dec.exit27

45:                                               ; preds = %lean_dec.exit26
  %46 = load i32, ptr %1, align 4, !tbaa !4
  %47 = icmp sgt i32 %46, 1
  br i1 %47, label %48, label %50, !prof !9

48:                                               ; preds = %45
  %49 = add nsw i32 %46, -1
  store i32 %49, ptr %1, align 4, !tbaa !4
  br label %lean_dec.exit27

50:                                               ; preds = %45
  %.not.i40 = icmp eq i32 %46, 0
  br i1 %.not.i40, label %lean_dec.exit27, label %51

51:                                               ; preds = %50
  tail call void @lean_dec_ref_cold(ptr noundef nonnull %1) #3
  br label %lean_dec.exit27

lean_dec.exit27:                                  ; preds = %51, %50, %48, %lean_dec.exit26
  %52 = getelementptr inbounds nuw i8, ptr %0, i64 8
  %53 = load ptr, ptr %52, align 8, !tbaa !10
  %54 = ptrtoint ptr %53 to i64
  %55 = and i64 %54, 1
  %.not58 = icmp eq i64 %55, 0
  br i1 %.not58, label %56, label %lean_inc.exit

56:                                               ; preds = %lean_dec.exit27
  %.val.i49 = load i32, ptr %53, align 4, !tbaa !4
  %57 = icmp sgt i32 %.val.i49, 0
  br i1 %57, label %58, label %60, !prof !9

58:                                               ; preds = %56
  %59 = add nuw i32 %.val.i49, 1
  store i32 %59, ptr %53, align 4, !tbaa !4
  br label %lean_inc.exit

60:                                               ; preds = %56
  %.not.i50 = icmp eq i32 %.val.i49, 0
  br i1 %.not.i50, label %lean_inc.exit, label %61

61:                                               ; preds = %60
  tail call void @lean_inc_ref_cold(ptr noundef nonnull %53) #3
  br label %lean_inc.exit

lean_inc.exit:                                    ; preds = %61, %60, %58, %lean_dec.exit27
  br i1 %.not.i48, label %62, label %lean_dec.exit28

62:                                               ; preds = %lean_inc.exit
  %63 = load i32, ptr %0, align 4, !tbaa !4
  %64 = icmp sgt i32 %63, 1
  br i1 %64, label %65, label %67, !prof !9

65:                                               ; preds = %62
  %66 = add nsw i32 %63, -1
  store i32 %66, ptr %0, align 4, !tbaa !4
  br label %lean_dec.exit28

67:                                               ; preds = %62
  %.not.i38 = icmp eq i32 %63, 0
  br i1 %.not.i38, label %lean_dec.exit28, label %68

68:                                               ; preds = %67
  tail call void @lean_dec_ref_cold(ptr noundef nonnull %0) #3
  br label %lean_dec.exit28

lean_dec.exit28:                                  ; preds = %68, %67, %65, %lean_inc.exit
  %69 = tail call ptr @lean_apply_2(ptr noundef %2, ptr noundef %53, ptr noundef nonnull inttoptr (i64 1 to ptr)) #3
  br label %117

70:                                               ; preds = %lean_obj_tag.exit
  %71 = ptrtoint ptr %2 to i64
  %72 = and i64 %71, 1
  %.not62 = icmp eq i64 %72, 0
  br i1 %.not62, label %73, label %lean_dec.exit29

73:                                               ; preds = %70
  %74 = load i32, ptr %2, align 4, !tbaa !4
  %75 = icmp sgt i32 %74, 1
  br i1 %75, label %76, label %78, !prof !9

76:                                               ; preds = %73
  %77 = add nsw i32 %74, -1
  store i32 %77, ptr %2, align 4, !tbaa !4
  br label %lean_dec.exit29

78:                                               ; preds = %73
  %.not.i36 = icmp eq i32 %74, 0
  br i1 %.not.i36, label %lean_dec.exit29, label %79

79:                                               ; preds = %78
  tail call void @lean_dec_ref_cold(ptr noundef nonnull %2) #3
  br label %lean_dec.exit29

lean_dec.exit29:                                  ; preds = %79, %78, %76, %70
  %80 = ptrtoint ptr %1 to i64
  %81 = and i64 %80, 1
  %.not63 = icmp eq i64 %81, 0
  br i1 %.not63, label %82, label %lean_dec.exit30

82:                                               ; preds = %lean_dec.exit29
  %83 = load i32, ptr %1, align 4, !tbaa !4
  %84 = icmp sgt i32 %83, 1
  br i1 %84, label %85, label %87, !prof !9

85:                                               ; preds = %82
  %86 = add nsw i32 %83, -1
  store i32 %86, ptr %1, align 4, !tbaa !4
  br label %lean_dec.exit30

87:                                               ; preds = %82
  %.not.i34 = icmp eq i32 %83, 0
  br i1 %.not.i34, label %lean_dec.exit30, label %88

88:                                               ; preds = %87
  tail call void @lean_dec_ref_cold(ptr noundef nonnull %1) #3
  br label %lean_dec.exit30

lean_dec.exit30:                                  ; preds = %88, %87, %85, %lean_dec.exit29
  %89 = getelementptr inbounds nuw i8, ptr %0, i64 8
  %90 = load ptr, ptr %89, align 8, !tbaa !10
  %91 = ptrtoint ptr %90 to i64
  %92 = and i64 %91, 1
  %.not64 = icmp eq i64 %92, 0
  br i1 %.not64, label %93, label %lean_inc.exit32

93:                                               ; preds = %lean_dec.exit30
  %.val.i51 = load i32, ptr %90, align 4, !tbaa !4
  %94 = icmp sgt i32 %.val.i51, 0
  br i1 %94, label %95, label %97, !prof !9

95:                                               ; preds = %93
  %96 = add nuw i32 %.val.i51, 1
  store i32 %96, ptr %90, align 4, !tbaa !4
  br label %lean_inc.exit32

97:                                               ; preds = %93
  %.not.i52 = icmp eq i32 %.val.i51, 0
  br i1 %.not.i52, label %lean_inc.exit32, label %98

98:                                               ; preds = %97
  tail call void @lean_inc_ref_cold(ptr noundef nonnull %90) #3
  br label %lean_inc.exit32

lean_inc.exit32:                                  ; preds = %98, %97, %95, %lean_dec.exit30
  %99 = getelementptr inbounds nuw i8, ptr %0, i64 16
  %100 = load ptr, ptr %99, align 8, !tbaa !10
  %101 = ptrtoint ptr %100 to i64
  %102 = and i64 %101, 1
  %.not65 = icmp eq i64 %102, 0
  br i1 %.not65, label %103, label %lean_inc.exit33

103:                                              ; preds = %lean_inc.exit32
  %.val.i54 = load i32, ptr %100, align 4, !tbaa !4
  %104 = icmp sgt i32 %.val.i54, 0
  br i1 %104, label %105, label %107, !prof !9

105:                                              ; preds = %103
  %106 = add nuw i32 %.val.i54, 1
  store i32 %106, ptr %100, align 4, !tbaa !4
  br label %lean_inc.exit33

107:                                              ; preds = %103
  %.not.i55 = icmp eq i32 %.val.i54, 0
  br i1 %.not.i55, label %lean_inc.exit33, label %108

108:                                              ; preds = %107
  tail call void @lean_inc_ref_cold(ptr noundef nonnull %100) #3
  br label %lean_inc.exit33

lean_inc.exit33:                                  ; preds = %108, %107, %105, %lean_inc.exit32
  br i1 %.not.i48, label %109, label %lean_dec.exit31

109:                                              ; preds = %lean_inc.exit33
  %110 = load i32, ptr %0, align 4, !tbaa !4
  %111 = icmp sgt i32 %110, 1
  br i1 %111, label %112, label %114, !prof !9

112:                                              ; preds = %109
  %113 = add nsw i32 %110, -1
  store i32 %113, ptr %0, align 4, !tbaa !4
  br label %lean_dec.exit31

114:                                              ; preds = %109
  %.not.i = icmp eq i32 %110, 0
  br i1 %.not.i, label %lean_dec.exit31, label %115

115:                                              ; preds = %114
  tail call void @lean_dec_ref_cold(ptr noundef nonnull %0) #3
  br label %lean_dec.exit31

lean_dec.exit31:                                  ; preds = %115, %114, %112, %lean_inc.exit33
  %116 = tail call ptr @lean_apply_3(ptr noundef %3, ptr noundef %90, ptr noundef %100, ptr noundef nonnull inttoptr (i64 1 to ptr)) #3
  br label %117

117:                                              ; preds = %lean_dec.exit31, %lean_dec.exit28, %lean_dec.exit25
  %.0 = phi ptr [ %116, %lean_dec.exit31 ], [ %69, %lean_dec.exit28 ], [ %32, %lean_dec.exit25 ]
  ret ptr %.0
}